; Function Attrs: nounwind uwtable
define dso_local noalias noundef ptr @jobcomp_p_get_jobs(ptr noundef readnone captures(none) %0) local_unnamed_addr #0 {
  %2 = tail call i32 @slurm_get_log_level() #7
  %3 = icmp sgt i32 %2, 4
  br i1 %3, label %4, label %5

4:                                                ; preds = %1
  tail call void (i32, ptr, ...) @slurm_log_var(i32 noundef 5, ptr noundef nonnull @.str.19, ptr noundef nonnull @plugin_type, ptr noundef nonnull @__func__.jobcomp_p_get_jobs, ptr noundef nonnull @__func__.jobcomp_p_get_jobs) #7
  br label %5

5:                                                ; preds = %4, %1
  ret ptr null
}